; Function Attrs: nounwind uwtable
define range(i32 -12, 1) i32 @ff_frame_new_side_data_from_buf(ptr noundef readonly captures(none) %0, ptr noundef %1, i32 noundef %2, ptr noundef %3) local_unnamed_addr #0 {
  %5 = getelementptr inbounds nuw i8, ptr %1, i64 264
  %6 = getelementptr inbounds nuw i8, ptr %1, i64 272
  %7 = getelementptr i8, ptr %0, i64 40
  %.val.i = load ptr, ptr %7, align 8, !tbaa !4
  %8 = load ptr, ptr %5, align 8, !tbaa !272
  %9 = load i32, ptr %6, align 4, !tbaa !69
  %10 = tail call ptr @av_frame_side_data_get_c(ptr noundef %8, i32 noundef %9, i32 noundef %2) #10
  %.not.i.i = icmp eq ptr %10, null
  br i1 %.not.i.i, label %18, label %11

11:                                               ; preds = %4
  %12 = getelementptr inbounds nuw i8, ptr %.val.i, i64 200
  %13 = load i64, ptr %12, align 8, !tbaa !262
  %14 = zext nneg i32 %2 to i64
  %15 = shl nuw i64 1, %14
  %16 = and i64 %13, %15
  %.not9.i.i = icmp eq i64 %16, 0
  br i1 %.not9.i.i, label %17, label %ff_frame_new_side_data_from_buf_ext.exit

17:                                               ; preds = %11
  tail call void @av_frame_side_data_remove(ptr noundef nonnull %5, ptr noundef nonnull %6, i32 noundef %2) #10
  br label %18

18:                                               ; preds = %17, %4
  %19 = tail call ptr @av_frame_side_data_add(ptr noundef nonnull %5, ptr noundef nonnull %6, i32 noundef %2, ptr noundef %3, i32 noundef 0) #10
  %.not9.i = icmp eq ptr %19, null
  %spec.select.i = select i1 %.not9.i, i32 -12, i32 0
  br label %ff_frame_new_side_data_from_buf_ext.exit

ff_frame_new_side_data_from_buf_ext.exit:         ; preds = %11, %18
  %.0.i = phi i32 [ %spec.select.i, %18 ], [ 0, %11 ]
  tail call void @av_buffer_unref(ptr noundef %3) #10
  ret i32 %.0.i
}